; ModuleID = 'source-C-CXX/56/491.c'
source_filename = "source-C-CXX/56/491.c"
target datalayout = "e-m:e-p270:32:32-p271:32:32-p272:64:64-i64:64-f80:128-n8:16:32:64-S128"
target triple = "x86_64-pc-linux-gnu"

@.str = private unnamed_addr constant [3 x i8] c"%d\00", align 1

; Function Attrs: nounwind sspstrong uwtable
define dso_local i32 @main() local_unnamed_addr #0 {
  %1 = alloca i32, align 4
  %2 = alloca [1 x i8], align 1
  %3 = alloca [100 x i8], align 16
  %4 = bitcast i32* %1 to i8*
  call void @llvm.lifetime.start.p0i8(i64 4, i8* nonnull %4) #5
  %5 = getelementptr inbounds [1 x i8], [1 x i8]* %2, i64 0, i64 0
  call void @llvm.lifetime.start.p0i8(i64 1, i8* nonnull %5) #5
  %6 = getelementptr inbounds [100 x i8], [100 x i8]* %3, i64 0, i64 0
  call void @llvm.lifetime.start.p0i8(i64 100, i8* nonnull %6) #5
  %7 = call i32 (i8*, ...) @__isoc99_scanf(i8* getelementptr inbounds ([3 x i8], [3 x i8]* @.str, i64 0, i64 0), i32* nonnull %1)
  %8 = call i32 (i8*, ...) bitcast (i32 (...)* @gets to i32 (i8*, ...)*)(i8* nonnull %5) #5
  %9 = load i32, i32* %1, align 4, !tbaa !5
  %10 = icmp slt i32 %9, 1
  br i1 %10, label %53, label %11

11:                                               ; preds = %0, %48
  %12 = phi i32 [ %50, %48 ], [ 1, %0 ]
  %13 = call i32 (i8*, ...) bitcast (i32 (...)* @gets to i32 (i8*, ...)*)(i8* nonnull %6) #5
  %14 = call i64 @strlen(i8* noundef nonnull %6) #6
  %15 = shl i64 %14, 32
  %16 = add i64 %15, -4294967296
  %17 = ashr exact i64 %16, 32
  %18 = getelementptr inbounds [100 x i8], [100 x i8]* %3, i64 0, i64 %17
  %19 = load i8, i8* %18, align 1, !tbaa !9
  switch i8 %19, label %48 [
    i8 114, label %20
    i8 121, label %26
    i8 103, label %32
  ]

20:                                               ; preds = %11
  %21 = add i64 %15, -8589934592
  %22 = ashr exact i64 %21, 32
  %23 = getelementptr inbounds [100 x i8], [100 x i8]* %3, i64 0, i64 %22
  %24 = load i8, i8* %23, align 1, !tbaa !9
  %25 = icmp eq i8 %24, 101
  br i1 %25, label %45, label %48

26:                                               ; preds = %11
  %27 = add i64 %15, -8589934592
  %28 = ashr exact i64 %27, 32
  %29 = getelementptr inbounds [100 x i8], [100 x i8]* %3, i64 0, i64 %28
  %30 = load i8, i8* %29, align 1, !tbaa !9
  %31 = icmp eq i8 %30, 108
  br i1 %31, label %45, label %48

32:                                               ; preds = %11
  %33 = add i64 %15, -8589934592
  %34 = ashr exact i64 %33, 32
  %35 = getelementptr inbounds [100 x i8], [100 x i8]* %3, i64 0, i64 %34
  %36 = load i8, i8* %35, align 1, !tbaa !9
  %37 = icmp eq i8 %36, 110
  br i1 %37, label %38, label %48

38:                                               ; preds = %32
  %39 = add i64 %15, -12884901888
  %40 = ashr exact i64 %39, 32
  %41 = getelementptr inbounds [100 x i8], [100 x i8]* %3, i64 0, i64 %40
  %42 = load i8, i8* %41, align 1, !tbaa !9
  %43 = icmp eq i8 %42, 105
  br i1 %43, label %44, label %48

44:                                               ; preds = %38
  store i8 0, i8* %18, align 1, !tbaa !9
  br label %45

45:                                               ; preds = %26, %20, %44
  %46 = phi i8* [ %35, %44 ], [ %18, %20 ], [ %18, %26 ]
  %47 = phi i8* [ %41, %44 ], [ %23, %20 ], [ %29, %26 ]
  store i8 0, i8* %46, align 1, !tbaa !9
  store i8 0, i8* %47, align 1, !tbaa !9
  br label %48

48:                                               ; preds = %45, %11, %20, %26, %38, %32
  %49 = call i32 @puts(i8* nonnull %6)
  %50 = add nuw nsw i32 %12, 1
  %51 = load i32, i32* %1, align 4, !tbaa !5
  %52 = icmp slt i32 %12, %51
  br i1 %52, label %11, label %53, !llvm.loop !10

53:                                               ; preds = %48, %0
  call void @llvm.lifetime.end.p0i8(i64 100, i8* nonnull %6) #5
  call void @llvm.lifetime.end.p0i8(i64 1, i8* nonnull %5) #5
  call void @llvm.lifetime.end.p0i8(i64 4, i8* nonnull %4) #5
  ret i32 0
}

; Function Attrs: argmemonly mustprogress nofree nosync nounwind willreturn
declare void @llvm.lifetime.start.p0i8(i64 immarg, i8* nocapture) #1

; Function Attrs: nofree nounwind
declare noundef i32 @__isoc99_scanf(i8* nocapture noundef readonly, ...) local_unnamed_addr #2

declare i32 @gets(...) local_unnamed_addr #3

; Function Attrs: argmemonly mustprogress nofree nounwind readonly willreturn
declare i64 @strlen(i8* nocapture) local_unnamed_addr #4

; Function Attrs: nofree nounwind
declare noundef i32 @puts(i8* nocapture noundef readonly) local_unnamed_addr #2

; Function Attrs: argmemonly mustprogress nofree nosync nounwind willreturn
declare void @llvm.lifetime.end.p0i8(i64 immarg, i8* nocapture) #1


!llvm.module.flags = !{!0, !1, !2, !3}
!llvm.ident = !{!4}

!0 = !{i32 1, !"wchar_size", i32 4}
!1 = !{i32 7, !"PIC Level", i32 2}
!2 = !{i32 7, !"PIE Level", i32 2}
!3 = !{i32 7, !"uwtable", i32 1}
!4 = !{!"clang version 13.0.0"}
!5 = !{!6, !6, i64 0}
!6 = !{!"int", !7, i64 0}
!7 = !{!"omnipotent char", !8, i64 0}
!8 = !{!"Simple C/C++ TBAA"}
!9 = !{!7, !7, i64 0}
!10 = distinct !{!10, !11}
!11 = !{!"llvm.loop.mustprogress"}
